target datalayout = "e-m:e-p270:32:32-p271:32:32-p272:64:64-i64:64-i128:128-f80:128-n8:16:32:64-S128"
target triple = "x86_64-pc-linux-gnu"

%struct.dirent = type { i64, i64, i16, i8, [256 x i8] }

@.str.1 = private unnamed_addr constant [14 x i8] c"/proc/self/fd\00", align 1
@fdmax = internal global i32 -1, align 4
@pmix_maxfd = external global i32, align 4

; Function Attrs: nounwind uwtable
define void @pmix_close_open_file_descriptors(i32 noundef %0) #0 {
  %2 = alloca i32, align 4
  %3 = alloca ptr, align 8
  %4 = alloca ptr, align 8
  %5 = alloca i32, align 4
  %6 = alloca i32, align 4
  %7 = alloca i32, align 4
  %8 = alloca i32, align 4
  store i32 %0, ptr %2, align 4, !tbaa !3
  call void @llvm.lifetime.start.p0(i64 8, ptr %3) #6
  %9 = call ptr @opendir(ptr noundef @.str.1)
  store ptr %9, ptr %3, align 8, !tbaa !24
  call void @llvm.lifetime.start.p0(i64 8, ptr %4) #6
  call void @llvm.lifetime.start.p0(i64 4, ptr %5) #6
  store i32 -1, ptr %5, align 4, !tbaa !3
  %10 = load ptr, ptr %3, align 8, !tbaa !24
  %11 = icmp eq ptr null, %10
  br i1 %11, label %12, label %13

12:                                               ; preds = %1
  br label %79

13:                                               ; preds = %1
  %14 = load ptr, ptr %3, align 8, !tbaa !24
  %15 = call i32 @dirfd(ptr noundef %14) #6
  store i32 %15, ptr %5, align 4, !tbaa !3
  %16 = load i32, ptr %5, align 4, !tbaa !3
  %17 = icmp slt i32 %16, 0
  br i1 %17, label %18, label %19

18:                                               ; preds = %13
  br label %79

19:                                               ; preds = %13
  br label %20

20:                                               ; preds = %75, %38, %19
  %21 = load ptr, ptr %3, align 8, !tbaa !24
  %22 = call ptr @readdir(ptr noundef %21)
  store ptr %22, ptr %4, align 8, !tbaa !26
  %23 = icmp ne ptr null, %22
  br i1 %23, label %24, label %76

24:                                               ; preds = %20
  %25 = call ptr @__ctype_b_loc() #7
  %26 = load ptr, ptr %25, align 8, !tbaa !28
  %27 = load ptr, ptr %4, align 8, !tbaa !26
  %28 = getelementptr inbounds nuw %struct.dirent, ptr %27, i32 0, i32 4
  %29 = getelementptr inbounds [256 x i8], ptr %28, i64 0, i64 0
  %30 = load i8, ptr %29, align 1, !tbaa !18
  %31 = sext i8 %30 to i32
  %32 = sext i32 %31 to i64
  %33 = getelementptr inbounds i16, ptr %26, i64 %32
  %34 = load i16, ptr %33, align 2, !tbaa !30
  %35 = zext i16 %34 to i32
  %36 = and i32 %35, 2048
  %37 = icmp ne i32 %36, 0
  br i1 %37, label %39, label %38

38:                                               ; preds = %24
  br label %20, !llvm.loop !31

39:                                               ; preds = %24
  call void @llvm.lifetime.start.p0(i64 4, ptr %6) #6
  %40 = load ptr, ptr %4, align 8, !tbaa !26
  %41 = getelementptr inbounds nuw %struct.dirent, ptr %40, i32 0, i32 4
  %42 = getelementptr inbounds [256 x i8], ptr %41, i64 0, i64 0
  %43 = call i64 @strtol(ptr noundef %42, ptr noundef null, i32 noundef 10) #6
  %44 = trunc i64 %43 to i32
  store i32 %44, ptr %6, align 4, !tbaa !3
  %45 = call ptr @__errno_location() #7
  %46 = load i32, ptr %45, align 4, !tbaa !3
  %47 = icmp eq i32 %46, 22
  br i1 %47, label %52, label %48

48:                                               ; preds = %39
  %49 = call ptr @__errno_location() #7
  %50 = load i32, ptr %49, align 4, !tbaa !3
  %51 = icmp eq i32 %50, 34
  br i1 %51, label %52, label %55

52:                                               ; preds = %48, %39
  %53 = load ptr, ptr %3, align 8, !tbaa !24
  %54 = call i32 @closedir(ptr noundef %53)
  store i32 2, ptr %7, align 4
  br label %73

55:                                               ; preds = %48
  %56 = load i32, ptr %6, align 4, !tbaa !3
  %57 = icmp sge i32 %56, 3
  br i1 %57, label %58, label %72

58:                                               ; preds = %55
  %59 = load i32, ptr %2, align 4, !tbaa !3
  %60 = icmp eq i32 -1, %59
  br i1 %60, label %65, label %61

61:                                               ; preds = %58
  %62 = load i32, ptr %6, align 4, !tbaa !3
  %63 = load i32, ptr %2, align 4, !tbaa !3
  %64 = icmp ne i32 %62, %63
  br i1 %64, label %65, label %72

65:                                               ; preds = %61, %58
  %66 = load i32, ptr %6, align 4, !tbaa !3
  %67 = load i32, ptr %5, align 4, !tbaa !3
  %68 = icmp ne i32 %66, %67
  br i1 %68, label %69, label %72

69:                                               ; preds = %65
  %70 = load i32, ptr %6, align 4, !tbaa !3
  %71 = call i32 @close(i32 noundef %70)
  br label %72

72:                                               ; preds = %69, %65, %61, %55
  store i32 0, ptr %7, align 4
  br label %73

73:                                               ; preds = %52, %72
  call void @llvm.lifetime.end.p0(i64 4, ptr %6) #6
  %74 = load i32, ptr %7, align 4
  switch i32 %74, label %112 [
    i32 0, label %75
    i32 2, label %79
  ]

75:                                               ; preds = %73
  br label %20, !llvm.loop !31

76:                                               ; preds = %20
  %77 = load ptr, ptr %3, align 8, !tbaa !24
  %78 = call i32 @closedir(ptr noundef %77)
  store i32 1, ptr %7, align 4
  br label %112

79:                                               ; preds = %73, %18, %12
  %80 = load i32, ptr @fdmax, align 4, !tbaa !3
  %81 = icmp sgt i32 0, %80
  br i1 %81, label %82, label %85

82:                                               ; preds = %79
  %83 = call i64 @sysconf(i32 noundef 4) #6
  %84 = trunc i64 %83 to i32
  store i32 %84, ptr @fdmax, align 4, !tbaa !3
  br label %85

85:                                               ; preds = %82, %79
  %86 = load i32, ptr @fdmax, align 4, !tbaa !3
  %87 = icmp eq i32 -1, %86
  br i1 %87, label %92, label %88

88:                                               ; preds = %85
  %89 = load i32, ptr @pmix_maxfd, align 4, !tbaa !3
  %90 = load i32, ptr @fdmax, align 4, !tbaa !3
  %91 = icmp slt i32 %89, %90
  br i1 %91, label %92, label %94

92:                                               ; preds = %88, %85
  %93 = load i32, ptr @pmix_maxfd, align 4, !tbaa !3
  store i32 %93, ptr @fdmax, align 4, !tbaa !3
  br label %94

94:                                               ; preds = %92, %88
  call void @llvm.lifetime.start.p0(i64 4, ptr %8) #6
  store i32 3, ptr %8, align 4, !tbaa !3
  br label %95

95:                                               ; preds = %108, %94
  %96 = load i32, ptr %8, align 4, !tbaa !3
  %97 = load i32, ptr @fdmax, align 4, !tbaa !3
  %98 = icmp slt i32 %96, %97
  br i1 %98, label %100, label %99

99:                                               ; preds = %95
  store i32 5, ptr %7, align 4
  call void @llvm.lifetime.end.p0(i64 4, ptr %8) #6
  br label %111

100:                                              ; preds = %95
  %101 = load i32, ptr %8, align 4, !tbaa !3
  %102 = load i32, ptr %2, align 4, !tbaa !3
  %103 = icmp ne i32 %101, %102
  br i1 %103, label %104, label %107

104:                                              ; preds = %100
  %105 = load i32, ptr %8, align 4, !tbaa !3
  %106 = call i32 @close(i32 noundef %105)
  br label %107

107:                                              ; preds = %104, %100
  br label %108

108:                                              ; preds = %107
  %109 = load i32, ptr %8, align 4, !tbaa !3
  %110 = add nsw i32 %109, 1
  store i32 %110, ptr %8, align 4, !tbaa !3
  br label %95, !llvm.loop !32

111:                                              ; preds = %99
  store i32 0, ptr %7, align 4
  br label %112

112:                                              ; preds = %111, %76, %73
  call void @llvm.lifetime.end.p0(i64 4, ptr %5) #6
  call void @llvm.lifetime.end.p0(i64 8, ptr %4) #6
  call void @llvm.lifetime.end.p0(i64 8, ptr %3) #6
  %113 = load i32, ptr %7, align 4
  switch i32 %113, label %115 [
    i32 0, label %114
    i32 1, label %114
  ]

114:                                              ; preds = %112, %112
  ret void

115:                                              ; preds = %112
  unreachable
}