; Function Attrs: nounwind uwtable
define void @pmix_close_open_file_descriptors(i32 noundef %0) local_unnamed_addr #4 {
  %2 = tail call ptr @opendir(ptr noundef nonnull @.str.1)
  %3 = icmp eq ptr %2, null
  br i1 %3, label %32, label %4

4:                                                ; preds = %1
  %5 = tail call i32 @dirfd(ptr noundef nonnull %2) #10
  %6 = icmp slt i32 %5, 0
  br i1 %6, label %32, label %.preheader

.preheader:                                       ; preds = %4
  %7 = tail call ptr @readdir(ptr noundef nonnull %2) #10
  %.not37 = icmp eq ptr %7, null
  br i1 %.not37, label %._crit_edge, label %.lr.ph

.lr.ph:                                           ; preds = %.preheader
  %8 = tail call ptr @__ctype_b_loc() #11
  %9 = icmp ne i32 %0, -1
  br label %10

10:                                               ; preds = %.lr.ph, %.backedge
  %11 = phi ptr [ %7, %.lr.ph ], [ %19, %.backedge ]
  %12 = load ptr, ptr %8, align 8, !tbaa !13
  %13 = getelementptr inbounds nuw i8, ptr %11, i64 19
  %14 = load i8, ptr %13, align 1, !tbaa !16
  %15 = sext i8 %14 to i64
  %16 = getelementptr inbounds i16, ptr %12, i64 %15
  %17 = load i16, ptr %16, align 2, !tbaa !17
  %18 = and i16 %17, 2048
  %.not27 = icmp eq i16 %18, 0
  br i1 %.not27, label %.backedge, label %20

.backedge:                                        ; preds = %28, %29, %26, %10
  %19 = tail call ptr @readdir(ptr noundef nonnull %2) #10
  %.not = icmp eq ptr %19, null
  br i1 %.not, label %._crit_edge, label %10, !llvm.loop !18

20:                                               ; preds = %10
  %21 = tail call i64 @strtol(ptr noundef nonnull captures(none) %13, ptr noundef null, i32 noundef 10) #10
  %22 = trunc i64 %21 to i32
  %23 = tail call ptr @__errno_location() #11
  %24 = load i32, ptr %23, align 4, !tbaa !3
  switch i32 %24, label %26 [
    i32 22, label %.thread
    i32 34, label %.thread
  ]

.thread:                                          ; preds = %20, %20
  %25 = tail call i32 @closedir(ptr noundef nonnull %2)
  br label %32

26:                                               ; preds = %20
  %27 = icmp sgt i32 %22, 2
  br i1 %27, label %28, label %.backedge

28:                                               ; preds = %26
  %.not28 = icmp eq i32 %0, %22
  %or.cond = select i1 %9, i1 %.not28, i1 false
  %.not29 = icmp eq i32 %5, %22
  %or.cond31 = select i1 %or.cond, i1 true, i1 %.not29
  br i1 %or.cond31, label %.backedge, label %29

29:                                               ; preds = %28
  %30 = tail call i32 @close(i32 noundef %22) #10
  br label %.backedge

._crit_edge:                                      ; preds = %.backedge, %.preheader
  %31 = tail call i32 @closedir(ptr noundef nonnull %2)
  br label %.loopexit

32:                                               ; preds = %.thread, %4, %1
  %33 = load i32, ptr @fdmax, align 4, !tbaa !3
  %34 = icmp slt i32 %33, 0
  br i1 %34, label %35, label %38

35:                                               ; preds = %32
  %36 = tail call i64 @sysconf(i32 noundef 4) #10
  %37 = trunc i64 %36 to i32
  store i32 %37, ptr @fdmax, align 4, !tbaa !3
  br label %38

38:                                               ; preds = %35, %32
  %39 = phi i32 [ %37, %35 ], [ %33, %32 ]
  %40 = icmp eq i32 %39, -1
  %41 = load i32, ptr @pmix_maxfd, align 4
  %42 = icmp slt i32 %41, %39
  %or.cond34 = select i1 %40, i1 true, i1 %42
  br i1 %or.cond34, label %43, label %44

43:                                               ; preds = %38
  store i32 %41, ptr @fdmax, align 4, !tbaa !3
  br label %44

44:                                               ; preds = %38, %43
  %45 = phi i32 [ %39, %38 ], [ %41, %43 ]
  %46 = icmp sgt i32 %45, 3
  br i1 %46, label %.lr.ph40, label %.loopexit

.lr.ph40:                                         ; preds = %44, %50
  %47 = phi i32 [ %51, %50 ], [ %45, %44 ]
  %.038 = phi i32 [ %52, %50 ], [ 3, %44 ]
  %.not30 = icmp eq i32 %.038, %0
  br i1 %.not30, label %50, label %48

48:                                               ; preds = %.lr.ph40
  %49 = tail call i32 @close(i32 noundef %.038) #10
  %.pre = load i32, ptr @fdmax, align 4, !tbaa !3
  br label %50

50:                                               ; preds = %.lr.ph40, %48
  %51 = phi i32 [ %47, %.lr.ph40 ], [ %.pre, %48 ]
  %52 = add nuw nsw i32 %.038, 1
  %53 = icmp slt i32 %52, %51
  br i1 %53, label %.lr.ph40, label %.loopexit, !llvm.loop !19

.loopexit:                                        ; preds = %50, %44, %._crit_edge
  ret void
}